target datalayout = "e-m:e-p270:32:32-p271:32:32-p272:64:64-i64:64-i128:128-f80:128-n8:16:32:64-S128"
target triple = "x86_64-pc-linux-gnu"

%struct.tool_ssls_ctx = type { ptr, ptr, i32 }

@.str.6 = private unnamed_addr constant [2 x i8] c"w\00", align 1
@.str.7 = private unnamed_addr constant [46 x i8] c"Warning: Failed to create SSL session file %s\00", align 1

; Function Attrs: nounwind uwtable
define dso_local i32 @tool_ssls_save(ptr noundef %0, ptr noundef %1, ptr noundef %2, ptr noundef %3) #0 {
  %5 = alloca ptr, align 8
  %6 = alloca ptr, align 8
  %7 = alloca ptr, align 8
  %8 = alloca ptr, align 8
  %9 = alloca %struct.tool_ssls_ctx, align 8
  %10 = alloca ptr, align 8
  %11 = alloca i32, align 4
  store ptr %0, ptr %5, align 8, !tbaa !4
  store ptr %1, ptr %6, align 8, !tbaa !9
  store ptr %2, ptr %7, align 8, !tbaa !11
  store ptr %3, ptr %8, align 8, !tbaa !12
  call void @llvm.lifetime.start.p0(i64 24, ptr %9) #4
  call void @llvm.lifetime.start.p0(i64 8, ptr %10) #4
  store ptr null, ptr %10, align 8, !tbaa !11
  call void @llvm.lifetime.start.p0(i64 4, ptr %11) #4
  store i32 0, ptr %11, align 4, !tbaa !14
  %12 = load ptr, ptr %5, align 8, !tbaa !4
  %13 = getelementptr inbounds nuw %struct.tool_ssls_ctx, ptr %9, i32 0, i32 0
  store ptr %12, ptr %13, align 8, !tbaa !30
  %14 = getelementptr inbounds nuw %struct.tool_ssls_ctx, ptr %9, i32 0, i32 2
  store i32 0, ptr %14, align 8, !tbaa !32
  %15 = load ptr, ptr %8, align 8, !tbaa !12
  %16 = call noalias ptr @fopen(ptr noundef %15, ptr noundef @.str.6)
  %17 = getelementptr inbounds nuw %struct.tool_ssls_ctx, ptr %9, i32 0, i32 1
  store ptr %16, ptr %17, align 8, !tbaa !33
  %18 = getelementptr inbounds nuw %struct.tool_ssls_ctx, ptr %9, i32 0, i32 1
  %19 = load ptr, ptr %18, align 8, !tbaa !33
  %20 = icmp ne ptr %19, null
  br i1 %20, label %24, label %21

21:                                               ; preds = %4
  %22 = load ptr, ptr %5, align 8, !tbaa !4
  %23 = load ptr, ptr %8, align 8, !tbaa !12
  call void (ptr, ptr, ...) @warnf(ptr noundef %22, ptr noundef @.str.7, ptr noundef %23)
  br label %35

24:                                               ; preds = %4
  %25 = load ptr, ptr %5, align 8, !tbaa !4
  %26 = load ptr, ptr %6, align 8, !tbaa !9
  %27 = load ptr, ptr %7, align 8, !tbaa !11
  %28 = call i32 @tool_ssls_easy(ptr noundef %25, ptr noundef %26, ptr noundef %27, ptr noundef %10)
  store i32 %28, ptr %11, align 4, !tbaa !14
  %29 = load i32, ptr %11, align 4, !tbaa !14
  %30 = icmp ne i32 %29, 0
  br i1 %30, label %31, label %32

31:                                               ; preds = %24
  br label %35

32:                                               ; preds = %24
  %33 = load ptr, ptr %10, align 8, !tbaa !11
  %34 = call i32 @curl_easy_ssls_export(ptr noundef %33, ptr noundef @tool_ssls_exp, ptr noundef %9)
  store i32 %34, ptr %11, align 4, !tbaa !14
  br label %35

35:                                               ; preds = %32, %31, %21
  %36 = load ptr, ptr %10, align 8, !tbaa !11
  %37 = icmp ne ptr %36, null
  br i1 %37, label %38, label %40

38:                                               ; preds = %35
  %39 = load ptr, ptr %10, align 8, !tbaa !11
  call void @curl_easy_cleanup(ptr noundef %39)
  br label %40

40:                                               ; preds = %38, %35
  %41 = getelementptr inbounds nuw %struct.tool_ssls_ctx, ptr %9, i32 0, i32 1
  %42 = load ptr, ptr %41, align 8, !tbaa !33
  %43 = icmp ne ptr %42, null
  br i1 %43, label %44, label %48

44:                                               ; preds = %40
  %45 = getelementptr inbounds nuw %struct.tool_ssls_ctx, ptr %9, i32 0, i32 1
  %46 = load ptr, ptr %45, align 8, !tbaa !33
  %47 = call i32 @fclose(ptr noundef %46)
  br label %48

48:                                               ; preds = %44, %40
  %49 = load i32, ptr %11, align 4, !tbaa !14
  call void @llvm.lifetime.end.p0(i64 4, ptr %11) #4
  call void @llvm.lifetime.end.p0(i64 8, ptr %10) #4
  call void @llvm.lifetime.end.p0(i64 24, ptr %9) #4
  ret i32 %49
}