; Function Attrs: nounwind uwtable
define dso_local i32 @tool_ssls_save(ptr noundef %0, ptr noundef %1, ptr noundef %2, ptr noundef %3) local_unnamed_addr #0 {
  %5 = alloca %struct.tool_ssls_ctx, align 8
  %6 = alloca ptr, align 8
  call void @llvm.lifetime.start.p0(i64 24, ptr nonnull %5) #5
  call void @llvm.lifetime.start.p0(i64 8, ptr nonnull %6) #5
  store ptr %0, ptr %5, align 8, !tbaa !25
  %7 = getelementptr inbounds nuw i8, ptr %5, i64 16
  store i32 0, ptr %7, align 8, !tbaa !28
  %8 = tail call noalias ptr @fopen(ptr noundef %3, ptr noundef nonnull @.str.6)
  %9 = getelementptr inbounds nuw i8, ptr %5, i64 8
  store ptr %8, ptr %9, align 8, !tbaa !29
  %.not = icmp eq ptr %8, null
  br i1 %.not, label %.thread, label %10

.thread:                                          ; preds = %4
  tail call void (ptr, ptr, ...) @warnf(ptr noundef %0, ptr noundef nonnull @.str.7, ptr noundef %3) #5
  br label %18

10:                                               ; preds = %4
  %11 = call fastcc i32 @tool_ssls_easy(ptr noundef %0, ptr noundef %1, ptr noundef %2, ptr noundef %6)
  %.not11 = icmp eq i32 %11, 0
  %.pr.pre = load ptr, ptr %6, align 8, !tbaa !9
  br i1 %.not11, label %12, label %thread-pre-split

12:                                               ; preds = %10
  %13 = call i32 @curl_easy_ssls_export(ptr noundef %.pr.pre, ptr noundef nonnull @tool_ssls_exp, ptr noundef nonnull %5) #5
  br label %thread-pre-split

thread-pre-split:                                 ; preds = %10, %12
  %.0 = phi i32 [ %13, %12 ], [ %11, %10 ]
  %.not12 = icmp eq ptr %.pr.pre, null
  br i1 %.not12, label %15, label %14

14:                                               ; preds = %thread-pre-split
  call void @curl_easy_cleanup(ptr noundef nonnull %.pr.pre) #5
  br label %15

15:                                               ; preds = %14, %thread-pre-split
  %.pr = load ptr, ptr %9, align 8, !tbaa !29
  %.not13 = icmp eq ptr %.pr, null
  br i1 %.not13, label %18, label %16

16:                                               ; preds = %15
  %17 = call i32 @fclose(ptr noundef nonnull %.pr)
  br label %18

18:                                               ; preds = %.thread, %16, %15
  %.01721 = phi i32 [ 0, %.thread ], [ %.0, %16 ], [ %.0, %15 ]
  call void @llvm.lifetime.end.p0(i64 8, ptr nonnull %6) #5
  call void @llvm.lifetime.end.p0(i64 24, ptr nonnull %5) #5
  ret i32 %.01721
}